target datalayout = "e-m:e-p270:32:32-p271:32:32-p272:64:64-i64:64-i128:128-f80:128-n8:16:32:64-S128"
target triple = "x86_64-pc-linux-gnu"

@.str.56 = private unnamed_addr constant [2 x i8] c"\0A\00", align 1
@.str.625 = private unnamed_addr constant [4 x i8] c"%s\0A\00", align 1
@.str.643 = private unnamed_addr constant [5 x i8] c"list\00", align 1
@.str.644 = private unnamed_addr constant [34 x i8] c"Supported hardware device types:\0A\00", align 1

; Function Attrs: nounwind uwtable
define internal i32 @opt_init_hw_device(ptr noundef %0, ptr noundef %1, ptr noundef %2) #0 {
  %4 = alloca i32, align 4
  %5 = alloca ptr, align 8
  %6 = alloca ptr, align 8
  %7 = alloca ptr, align 8
  %8 = alloca i32, align 4
  store ptr %0, ptr %5, align 8, !tbaa !26
  store ptr %1, ptr %6, align 8, !tbaa !23
  store ptr %2, ptr %7, align 8, !tbaa !23
  %9 = load ptr, ptr %7, align 8, !tbaa !23
  %10 = call i32 @strcmp(ptr noundef %9, ptr noundef @.str.643) #13
  %11 = icmp ne i32 %10, 0
  br i1 %11, label %24, label %12

12:                                               ; preds = %3
  call void @llvm.lifetime.start.p0(i64 4, ptr %8) #12
  store i32 0, ptr %8, align 4, !tbaa !16
  %13 = call i32 (ptr, ...) @printf(ptr noundef @.str.644)
  br label %14

14:                                               ; preds = %18, %12
  %15 = load i32, ptr %8, align 4, !tbaa !16
  %16 = call i32 @av_hwdevice_iterate_types(i32 noundef %15)
  store i32 %16, ptr %8, align 4, !tbaa !16
  %17 = icmp ne i32 %16, 0
  br i1 %17, label %18, label %22

18:                                               ; preds = %14
  %19 = load i32, ptr %8, align 4, !tbaa !16
  %20 = call ptr @av_hwdevice_get_type_name(i32 noundef %19)
  %21 = call i32 (ptr, ...) @printf(ptr noundef @.str.625, ptr noundef %20)
  br label %14, !llvm.loop !198

22:                                               ; preds = %14
  %23 = call i32 (ptr, ...) @printf(ptr noundef @.str.56)
  store i32 -1414092869, ptr %4, align 4
  call void @llvm.lifetime.end.p0(i64 4, ptr %8) #12
  br label %27

24:                                               ; preds = %3
  %25 = load ptr, ptr %7, align 8, !tbaa !23
  %26 = call i32 @hw_device_init_from_string(ptr noundef %25, ptr noundef null)
  store i32 %26, ptr %4, align 4
  br label %27

27:                                               ; preds = %24, %22
  %28 = load i32, ptr %4, align 4
  ret i32 %28
}