; Function Attrs: nounwind uwtable
define internal i32 @opt_init_hw_device(ptr readnone captures(none) %0, ptr readnone captures(none) %1, ptr noundef %2) #0 {
  %4 = tail call i32 @strcmp(ptr noundef nonnull dereferenceable(1) %2, ptr noundef nonnull dereferenceable(5) @.str.643) #17
  %.not = icmp eq i32 %4, 0
  br i1 %.not, label %5, label %10

5:                                                ; preds = %3
  %puts = tail call i32 @puts(ptr nonnull dereferenceable(1) @str.1)
  %6 = tail call i32 @av_hwdevice_iterate_types(i32 noundef 0) #15
  %.not68 = icmp eq i32 %6, 0
  br i1 %.not68, label %._crit_edge, label %.lr.ph

.lr.ph:                                           ; preds = %5, %.lr.ph
  %7 = phi i32 [ %9, %.lr.ph ], [ %6, %5 ]
  %8 = tail call ptr @av_hwdevice_get_type_name(i32 noundef %7) #15
  %puts7 = tail call i32 @puts(ptr nonnull dereferenceable(1) %8)
  %9 = tail call i32 @av_hwdevice_iterate_types(i32 noundef %7) #15
  %.not6 = icmp eq i32 %9, 0
  br i1 %.not6, label %._crit_edge, label %.lr.ph, !llvm.loop !174

._crit_edge:                                      ; preds = %.lr.ph, %5
  %putchar = tail call i32 @putchar(i32 10)
  br label %12

10:                                               ; preds = %3
  %11 = tail call i32 @hw_device_init_from_string(ptr noundef nonnull %2, ptr noundef null) #15
  br label %12

12:                                               ; preds = %10, %._crit_edge
  %.04 = phi i32 [ %11, %10 ], [ -1414092869, %._crit_edge ]
  ret i32 %.04
}